target datalayout = "e-m:e-p270:32:32-p271:32:32-p272:64:64-i64:64-i128:128-f80:128-n8:16:32:64-S128"
target triple = "x86_64-pc-linux-gnu"

%struct.ParamListInfoData = type { ptr, ptr, ptr, ptr, ptr, ptr, ptr, i32, [0 x %struct.ParamExternData] }
%struct.ParamExternData = type { i64, i8, i16, i32 }
%struct.ParseState = type { ptr, ptr, i32, i32, ptr, ptr, ptr, ptr, ptr, ptr, i8, ptr, ptr, ptr, ptr, ptr, ptr, i8, ptr, i32, i32, ptr, ptr, i8, i8, ptr, i8, i8, i8, i8, i8, ptr, ptr, ptr, ptr, ptr, ptr }
%struct.ParamRef = type { i32, i32, i32 }
%struct.Param = type { %struct.Expr, i32, i32, i32, i32, i32, i32 }
%struct.Expr = type { i32 }
%struct.Node = type { i32 }

; Function Attrs: inlinehint nounwind uwtable
define internal ptr @newNode(i64 noundef %0, i32 noundef %1) #4 {
  %3 = alloca i64, align 8
  %4 = alloca i32, align 4
  %5 = alloca ptr, align 8
  store i64 %0, ptr %3, align 8
  store i32 %1, ptr %4, align 4
  call void @llvm.lifetime.start.p0(i64 8, ptr %5) #5
  %6 = load i64, ptr %3, align 8
  %7 = call ptr @palloc0(i64 noundef %6)
  store ptr %7, ptr %5, align 8
  %8 = load i32, ptr %4, align 4
  %9 = load ptr, ptr %5, align 8
  %10 = getelementptr inbounds nuw %struct.Node, ptr %9, i32 0, i32 0
  store i32 %8, ptr %10, align 4
  %11 = load ptr, ptr %5, align 8
  call void @llvm.lifetime.end.p0(i64 8, ptr %5) #5
  ret ptr %11
}

; Function Attrs: nounwind uwtable
define internal ptr @paramlist_param_ref(ptr noundef %0, ptr noundef %1) #0 {
  %3 = alloca ptr, align 8
  %4 = alloca ptr, align 8
  %5 = alloca ptr, align 8
  %6 = alloca ptr, align 8
  %7 = alloca i32, align 4
  %8 = alloca ptr, align 8
  %9 = alloca %struct.ParamExternData, align 8
  %10 = alloca ptr, align 8
  %11 = alloca i32, align 4
  store ptr %0, ptr %4, align 8
  store ptr %1, ptr %5, align 8
  call void @llvm.lifetime.start.p0(i64 8, ptr %6) #5
  %12 = load ptr, ptr %4, align 8
  %13 = getelementptr inbounds nuw %struct.ParseState, ptr %12, i32 0, i32 36
  %14 = load ptr, ptr %13, align 8
  store ptr %14, ptr %6, align 8
  call void @llvm.lifetime.start.p0(i64 4, ptr %7) #5
  %15 = load ptr, ptr %5, align 8
  %16 = getelementptr inbounds nuw %struct.ParamRef, ptr %15, i32 0, i32 1
  %17 = load i32, ptr %16, align 4
  store i32 %17, ptr %7, align 4
  call void @llvm.lifetime.start.p0(i64 8, ptr %8) #5
  call void @llvm.lifetime.start.p0(i64 16, ptr %9) #5
  call void @llvm.lifetime.start.p0(i64 8, ptr %10) #5
  %18 = load i32, ptr %7, align 4
  %19 = icmp sle i32 %18, 0
  br i1 %19, label %26, label %20

20:                                               ; preds = %2
  %21 = load i32, ptr %7, align 4
  %22 = load ptr, ptr %6, align 8
  %23 = getelementptr inbounds nuw %struct.ParamListInfoData, ptr %22, i32 0, i32 7
  %24 = load i32, ptr %23, align 8
  %25 = icmp sgt i32 %21, %24
  br i1 %25, label %26, label %27

26:                                               ; preds = %20, %2
  store ptr null, ptr %3, align 8
  store i32 1, ptr %11, align 4
  br label %78

27:                                               ; preds = %20
  %28 = load ptr, ptr %6, align 8
  %29 = getelementptr inbounds nuw %struct.ParamListInfoData, ptr %28, i32 0, i32 0
  %30 = load ptr, ptr %29, align 8
  %31 = icmp ne ptr %30, null
  br i1 %31, label %32, label %39

32:                                               ; preds = %27
  %33 = load ptr, ptr %6, align 8
  %34 = getelementptr inbounds nuw %struct.ParamListInfoData, ptr %33, i32 0, i32 0
  %35 = load ptr, ptr %34, align 8
  %36 = load ptr, ptr %6, align 8
  %37 = load i32, ptr %7, align 4
  %38 = call ptr %35(ptr noundef %36, i32 noundef %37, i1 noundef zeroext false, ptr noundef %9)
  store ptr %38, ptr %8, align 8
  br label %46

39:                                               ; preds = %27
  %40 = load ptr, ptr %6, align 8
  %41 = getelementptr inbounds nuw %struct.ParamListInfoData, ptr %40, i32 0, i32 8
  %42 = load i32, ptr %7, align 4
  %43 = sub i32 %42, 1
  %44 = sext i32 %43 to i64
  %45 = getelementptr inbounds [0 x %struct.ParamExternData], ptr %41, i64 0, i64 %44
  store ptr %45, ptr %8, align 8
  br label %46

46:                                               ; preds = %39, %32
  %47 = load ptr, ptr %8, align 8
  %48 = getelementptr inbounds nuw %struct.ParamExternData, ptr %47, i32 0, i32 3
  %49 = load i32, ptr %48, align 4
  %50 = icmp ne i32 %49, 0
  br i1 %50, label %52, label %51

51:                                               ; preds = %46
  store ptr null, ptr %3, align 8
  store i32 1, ptr %11, align 4
  br label %78

52:                                               ; preds = %46
  %53 = call ptr @newNode(i64 noundef 28, i32 noundef 8)
  store ptr %53, ptr %10, align 8
  %54 = load ptr, ptr %10, align 8
  %55 = getelementptr inbounds nuw %struct.Param, ptr %54, i32 0, i32 1
  store i32 0, ptr %55, align 4
  %56 = load i32, ptr %7, align 4
  %57 = load ptr, ptr %10, align 8
  %58 = getelementptr inbounds nuw %struct.Param, ptr %57, i32 0, i32 2
  store i32 %56, ptr %58, align 4
  %59 = load ptr, ptr %8, align 8
  %60 = getelementptr inbounds nuw %struct.ParamExternData, ptr %59, i32 0, i32 3
  %61 = load i32, ptr %60, align 4
  %62 = load ptr, ptr %10, align 8
  %63 = getelementptr inbounds nuw %struct.Param, ptr %62, i32 0, i32 3
  store i32 %61, ptr %63, align 4
  %64 = load ptr, ptr %10, align 8
  %65 = getelementptr inbounds nuw %struct.Param, ptr %64, i32 0, i32 4
  store i32 -1, ptr %65, align 4
  %66 = load ptr, ptr %10, align 8
  %67 = getelementptr inbounds nuw %struct.Param, ptr %66, i32 0, i32 3
  %68 = load i32, ptr %67, align 4
  %69 = call i32 @get_typcollation(i32 noundef %68)
  %70 = load ptr, ptr %10, align 8
  %71 = getelementptr inbounds nuw %struct.Param, ptr %70, i32 0, i32 5
  store i32 %69, ptr %71, align 4
  %72 = load ptr, ptr %5, align 8
  %73 = getelementptr inbounds nuw %struct.ParamRef, ptr %72, i32 0, i32 2
  %74 = load i32, ptr %73, align 4
  %75 = load ptr, ptr %10, align 8
  %76 = getelementptr inbounds nuw %struct.Param, ptr %75, i32 0, i32 6
  store i32 %74, ptr %76, align 4
  %77 = load ptr, ptr %10, align 8
  store ptr %77, ptr %3, align 8
  store i32 1, ptr %11, align 4
  br label %78

78:                                               ; preds = %52, %51, %26
  call void @llvm.lifetime.end.p0(i64 8, ptr %10) #5
  call void @llvm.lifetime.end.p0(i64 16, ptr %9) #5
  call void @llvm.lifetime.end.p0(i64 8, ptr %8) #5
  call void @llvm.lifetime.end.p0(i64 4, ptr %7) #5
  call void @llvm.lifetime.end.p0(i64 8, ptr %6) #5
  %79 = load ptr, ptr %3, align 8
  ret ptr %79
}